target datalayout = "e-m:e-p270:32:32-p271:32:32-p272:64:64-i64:64-i128:128-f80:128-n8:16:32:64-S128"
target triple = "x86_64-pc-linux-gnu"

%struct.malloc_params = type { i64, i64, i64, i64, i64, i32 }
%struct.boost_cont_command_ret_impl = type { ptr, i32 }

@mparams = internal global %struct.malloc_params zeroinitializer, align 8

; Function Attrs: nounwind uwtable
define hidden ptr @boost_cont_malloc(i64 noundef %0) #0 {
  %2 = alloca i64, align 8
  %3 = alloca i64, align 8
  %4 = alloca %struct.boost_cont_command_ret_impl, align 8
  store i64 %0, ptr %2, align 8, !tbaa !3
  call void @llvm.lifetime.start.p0(i64 8, ptr %3) #9
  %5 = load i64, ptr @mparams, align 8, !tbaa !7
  %6 = icmp ne i64 %5, 0
  br i1 %6, label %9, label %7

7:                                                ; preds = %1
  %8 = call i32 @init_mparams()
  br label %9

9:                                                ; preds = %7, %1
  %10 = load i64, ptr %2, align 8, !tbaa !3
  %11 = load i64, ptr %2, align 8, !tbaa !3
  %12 = call { ptr, i32 } @boost_cont_allocation_command(i32 noundef 1, i64 noundef 1, i64 noundef %10, i64 noundef %11, ptr noundef %3, ptr noundef null)
  %13 = getelementptr inbounds nuw { ptr, i32 }, ptr %4, i32 0, i32 0
  %14 = extractvalue { ptr, i32 } %12, 0
  store ptr %14, ptr %13, align 8
  %15 = getelementptr inbounds nuw { ptr, i32 }, ptr %4, i32 0, i32 1
  %16 = extractvalue { ptr, i32 } %12, 1
  store i32 %16, ptr %15, align 8
  %17 = getelementptr inbounds nuw %struct.boost_cont_command_ret_impl, ptr %4, i32 0, i32 0
  %18 = load ptr, ptr %17, align 8, !tbaa !86
  call void @llvm.lifetime.end.p0(i64 8, ptr %3) #9
  ret ptr %18
}