; Function Attrs: nounwind uwtable
define hidden ptr @boost_cont_malloc(i64 noundef %0) local_unnamed_addr #0 {
  %2 = alloca i64, align 8
  call void @llvm.lifetime.start.p0(i64 8, ptr nonnull %2) #17
  %3 = load i64, ptr @mparams, align 8, !tbaa !3
  %.not = icmp eq i64 %3, 0
  br i1 %.not, label %4, label %5

4:                                                ; preds = %1
  tail call fastcc void @init_mparams()
  br label %5

5:                                                ; preds = %4, %1
  %6 = call { ptr, i32 } @boost_cont_allocation_command(i32 noundef 1, i64 noundef 1, i64 noundef %0, i64 noundef %0, ptr noundef nonnull %2, ptr noundef null)
  %7 = extractvalue { ptr, i32 } %6, 0
  call void @llvm.lifetime.end.p0(i64 8, ptr nonnull %2) #17
  ret ptr %7
}